; Function Attrs: mustprogress nounwind uwtable
define dso_local noundef ptr @_ZNK4llvm28TargetLoweringObjectFileCOFF20getStaticDtorSectionEjPKNS_8MCSymbolE(ptr nocapture noundef nonnull readonly align 8 dereferenceable(984) %0, i32 noundef %1, ptr noundef %2) unnamed_addr #0 align 2 {
  %4 = getelementptr inbounds nuw i8, ptr %0, i64 904
  %5 = load ptr, ptr %4, align 8
  %6 = getelementptr inbounds nuw i8, ptr %0, i64 952
  %7 = load ptr, ptr %6, align 8
  %8 = getelementptr i8, ptr %5, i64 68
  %.val = load i32, ptr %8, align 4
  %9 = getelementptr i8, ptr %5, i64 72
  %.val2 = load i32, ptr %9, align 8
  %10 = tail call fastcc noundef ptr @_ZL28getCOFFStaticStructorSectionRN4llvm9MCContextERKNS_6TripleEbjPKNS_8MCSymbolEPNS_13MCSectionCOFFE(ptr noundef nonnull align 8 dereferenceable(2432) %5, i32 %.val, i32 %.val2, i1 noundef zeroext false, i32 noundef %1, ptr noundef %2, ptr noundef %7)
  ret ptr %10
}